target datalayout = "e-m:e-p270:32:32-p271:32:32-p272:64:64-i64:64-i128:128-f80:128-n8:16:32:64-S128"
target triple = "x86_64-pc-linux-gnu"

%struct.SDL_AtomicInt = type { i32 }
%struct.SDL_DisplayMode = type { i32, i32, i32, i32, float, float, i32, i32, ptr }
%struct.SDL_HDROutputProperties = type { float, float }
%struct.SDL_Rect = type { i32, i32, i32, i32 }
%struct.SDL_VideoDevice = type { ptr, ptr, ptr, ptr, ptr, ptr, ptr, ptr, ptr, ptr, ptr, ptr, ptr, ptr, ptr, ptr, ptr, ptr, ptr, ptr, ptr, ptr, ptr, ptr, ptr, ptr, ptr, ptr, ptr, ptr, ptr, ptr, ptr, ptr, ptr, ptr, ptr, ptr, ptr, ptr, ptr, ptr, ptr, ptr, ptr, ptr, ptr, ptr, ptr, ptr, ptr, ptr, ptr, ptr, ptr, ptr, ptr, ptr, ptr, ptr, ptr, ptr, ptr, ptr, ptr, ptr, ptr, ptr, ptr, ptr, ptr, ptr, ptr, ptr, ptr, ptr, ptr, ptr, ptr, ptr, ptr, ptr, ptr, ptr, ptr, ptr, ptr, ptr, ptr, ptr, ptr, ptr, ptr, ptr, ptr, ptr, ptr, i64, i8, i8, i8, ptr, i32, ptr, %struct.SDL_Rect, ptr, ptr, i32, ptr, ptr, ptr, ptr, i64, ptr, i8, i32, i32, %struct.anon, ptr, ptr, ptr, ptr, ptr, ptr, %struct.SDL_AtomicInt, %struct.SDL_AtomicInt, i8, %struct.anon.0, ptr, ptr, ptr, ptr, ptr }
%struct.anon = type { i32, i32, i32, i32, i32, i32, i32, i32, i32, i32, i32, i32, i32, i32, i32, i32, i32, i32, i32, i32, i32, i32, i32, i32, i32, i32, i32, i32, i32, [256 x i8], ptr }
%struct.anon.0 = type { ptr, ptr, i32, [256 x i8], ptr }
%struct.SDL_VideoDisplay = type { i32, ptr, i32, i32, ptr, %struct.SDL_DisplayMode, ptr, i32, i32, float, %struct.SDL_HDROutputProperties, i8, ptr, ptr, i32, ptr }

@.str.1 = private unnamed_addr constant [41 x i8] c"Video subsystem has not been initialized\00", align 1
@_this = internal global ptr null, align 8
@.str.11 = private unnamed_addr constant [16 x i8] c"Invalid display\00", align 1

; Function Attrs: nounwind uwtable
define hidden zeroext i1 @SDL_UninitializedVideo() #0 {
  %1 = call zeroext i1 (ptr, ...) @SDL_SetError_REAL(ptr noundef @.str.1)
  ret i1 %1
}

; Function Attrs: nounwind uwtable
define hidden i32 @SDL_GetDisplayIndex(i32 noundef %0) #0 {
  %2 = alloca i32, align 4
  %3 = alloca i32, align 4
  %4 = alloca i32, align 4
  %5 = alloca i32, align 4
  store i32 %0, ptr %3, align 4
  call void @llvm.lifetime.start.p0(i64 4, ptr %4) #10
  %6 = load ptr, ptr @_this, align 8
  %7 = icmp ne ptr %6, null
  br i1 %7, label %10, label %8

8:                                                ; preds = %1
  %9 = call zeroext i1 @SDL_UninitializedVideo()
  store i32 -1, ptr %2, align 4
  store i32 1, ptr %5, align 4
  br label %37

10:                                               ; preds = %1
  store i32 0, ptr %4, align 4
  br label %11

11:                                               ; preds = %32, %10
  %12 = load i32, ptr %4, align 4
  %13 = load ptr, ptr @_this, align 8
  %14 = getelementptr inbounds nuw %struct.SDL_VideoDevice, ptr %13, i32 0, i32 102
  %15 = load i32, ptr %14, align 8
  %16 = icmp slt i32 %12, %15
  br i1 %16, label %17, label %35

17:                                               ; preds = %11
  %18 = load i32, ptr %3, align 4
  %19 = load ptr, ptr @_this, align 8
  %20 = getelementptr inbounds nuw %struct.SDL_VideoDevice, ptr %19, i32 0, i32 103
  %21 = load ptr, ptr %20, align 8
  %22 = load i32, ptr %4, align 4
  %23 = sext i32 %22 to i64
  %24 = getelementptr inbounds ptr, ptr %21, i64 %23
  %25 = load ptr, ptr %24, align 8
  %26 = getelementptr inbounds nuw %struct.SDL_VideoDisplay, ptr %25, i32 0, i32 0
  %27 = load i32, ptr %26, align 8
  %28 = icmp eq i32 %18, %27
  br i1 %28, label %29, label %31

29:                                               ; preds = %17
  %30 = load i32, ptr %4, align 4
  store i32 %30, ptr %2, align 4
  store i32 1, ptr %5, align 4
  br label %37

31:                                               ; preds = %17
  br label %32

32:                                               ; preds = %31
  %33 = load i32, ptr %4, align 4
  %34 = add nsw i32 %33, 1
  store i32 %34, ptr %4, align 4
  br label %11, !llvm.loop !18

35:                                               ; preds = %11
  %36 = call zeroext i1 (ptr, ...) @SDL_SetError_REAL(ptr noundef @.str.11)
  store i32 -1, ptr %2, align 4
  store i32 1, ptr %5, align 4
  br label %37

37:                                               ; preds = %35, %29, %8
  call void @llvm.lifetime.end.p0(i64 4, ptr %4) #10
  %38 = load i32, ptr %2, align 4
  ret i32 %38
}

; Function Attrs: nounwind uwtable
define hidden ptr @SDL_GetVideoDisplay(i32 noundef %0) #0 {
  %2 = alloca ptr, align 8
  %3 = alloca i32, align 4
  %4 = alloca i32, align 4
  %5 = alloca i32, align 4
  store i32 %0, ptr %3, align 4
  call void @llvm.lifetime.start.p0(i64 4, ptr %4) #10
  %6 = load i32, ptr %3, align 4
  %7 = call i32 @SDL_GetDisplayIndex(i32 noundef %6)
  store i32 %7, ptr %4, align 4
  %8 = load i32, ptr %4, align 4
  %9 = icmp slt i32 %8, 0
  br i1 %9, label %10, label %11

10:                                               ; preds = %1
  store ptr null, ptr %2, align 8
  store i32 1, ptr %5, align 4
  br label %19

11:                                               ; preds = %1
  %12 = load ptr, ptr @_this, align 8
  %13 = getelementptr inbounds nuw %struct.SDL_VideoDevice, ptr %12, i32 0, i32 103
  %14 = load ptr, ptr %13, align 8
  %15 = load i32, ptr %4, align 4
  %16 = sext i32 %15 to i64
  %17 = getelementptr inbounds ptr, ptr %14, i64 %16
  %18 = load ptr, ptr %17, align 8
  store ptr %18, ptr %2, align 8
  store i32 1, ptr %5, align 4
  br label %19

19:                                               ; preds = %11, %10
  call void @llvm.lifetime.end.p0(i64 4, ptr %4) #10
  %20 = load ptr, ptr %2, align 8
  ret ptr %20
}

; Function Attrs: nounwind uwtable
define hidden i32 @SDL_GetNaturalDisplayOrientation_REAL(i32 noundef %0) #0 {
  %2 = alloca i32, align 4
  %3 = alloca i32, align 4
  %4 = alloca ptr, align 8
  %5 = alloca i32, align 4
  store i32 %0, ptr %3, align 4
  call void @llvm.lifetime.start.p0(i64 8, ptr %4) #10
  %6 = load i32, ptr %3, align 4
  %7 = call ptr @SDL_GetVideoDisplay(i32 noundef %6)
  store ptr %7, ptr %4, align 8
  %8 = load ptr, ptr %4, align 8
  %9 = icmp ne ptr %8, null
  br i1 %9, label %11, label %10

10:                                               ; preds = %1
  store i32 0, ptr %2, align 4
  store i32 1, ptr %5, align 4
  br label %21

11:                                               ; preds = %1
  %12 = load ptr, ptr %4, align 8
  %13 = getelementptr inbounds nuw %struct.SDL_VideoDisplay, ptr %12, i32 0, i32 7
  %14 = load i32, ptr %13, align 8
  %15 = icmp ne i32 %14, 0
  br i1 %15, label %16, label %20

16:                                               ; preds = %11
  %17 = load ptr, ptr %4, align 8
  %18 = getelementptr inbounds nuw %struct.SDL_VideoDisplay, ptr %17, i32 0, i32 7
  %19 = load i32, ptr %18, align 8
  store i32 %19, ptr %2, align 4
  store i32 1, ptr %5, align 4
  br label %21

20:                                               ; preds = %11
  store i32 1, ptr %2, align 4
  store i32 1, ptr %5, align 4
  br label %21

21:                                               ; preds = %20, %16, %10
  call void @llvm.lifetime.end.p0(i64 8, ptr %4) #10
  %22 = load i32, ptr %2, align 4
  ret i32 %22
}